; ModuleID = '29/1138.c'
source_filename = "29/1138.c"
target datalayout = "e-m:e-p270:32:32-p271:32:32-p272:64:64-i64:64-f80:128-n8:16:32:64-S128"
target triple = "x86_64-pc-linux-gnu"

@.str = private unnamed_addr constant [4 x i8] c"%lf\00", align 1
@.str.1 = private unnamed_addr constant [7 x i8] c"%.3lf\0A\00", align 1

; Function Attrs: noinline nounwind uwtable
define dso_local i32 @main() #0 {
  %1 = alloca i32, align 4
  %2 = alloca double, align 8
  %3 = alloca [100 x double], align 16
  %4 = alloca [100 x double], align 16
  %5 = alloca [100 x double], align 16
  %6 = alloca [100 x double], align 16
  %7 = alloca i32, align 4
  %8 = alloca i32, align 4
  store i32 0, i32* %1, align 4
  %9 = call i32 (i8*, ...) @__isoc99_scanf(i8* getelementptr inbounds ([4 x i8], [4 x i8]* @.str, i64 0, i64 0), double* %2)
  store i32 0, i32* %7, align 4
  br label %10

10:                                               ; preds = %20, %0
  %11 = load i32, i32* %7, align 4
  %12 = sitofp i32 %11 to double
  %13 = load double, double* %2, align 8
  %14 = fcmp olt double %12, %13
  br i1 %14, label %15, label %23

15:                                               ; preds = %10
  %16 = load i32, i32* %7, align 4
  %17 = sext i32 %16 to i64
  %18 = getelementptr inbounds [100 x double], [100 x double]* %3, i64 0, i64 %17
  %19 = call i32 (i8*, ...) @__isoc99_scanf(i8* getelementptr inbounds ([4 x i8], [4 x i8]* @.str, i64 0, i64 0), double* %18)
  br label %20

20:                                               ; preds = %15
  %21 = load i32, i32* %7, align 4
  %22 = add nsw i32 %21, 1
  store i32 %22, i32* %7, align 4
  br label %10

23:                                               ; preds = %10
  store i32 0, i32* %7, align 4
  br label %24

24:                                               ; preds = %122, %23
  %25 = load i32, i32* %7, align 4
  %26 = sitofp i32 %25 to double
  %27 = load double, double* %2, align 8
  %28 = fcmp olt double %26, %27
  br i1 %28, label %29, label %125

29:                                               ; preds = %24
  %30 = load i32, i32* %7, align 4
  %31 = sext i32 %30 to i64
  %32 = getelementptr inbounds [100 x double], [100 x double]* %3, i64 0, i64 %31
  %33 = load double, double* %32, align 8
  %34 = fcmp oeq double %33, 1.000000e+00
  br i1 %34, label %35, label %39

35:                                               ; preds = %29
  %36 = load i32, i32* %7, align 4
  %37 = sext i32 %36 to i64
  %38 = getelementptr inbounds [100 x double], [100 x double]* %6, i64 0, i64 %37
  store double 2.000000e+00, double* %38, align 8
  br label %121

39:                                               ; preds = %29
  store i32 1, i32* %8, align 4
  br label %40

40:                                               ; preds = %66, %39
  %41 = load i32, i32* %8, align 4
  %42 = sitofp i32 %41 to double
  %43 = load i32, i32* %7, align 4
  %44 = sext i32 %43 to i64
  %45 = getelementptr inbounds [100 x double], [100 x double]* %3, i64 0, i64 %44
  %46 = load double, double* %45, align 8
  %47 = fadd double %46, 1.000000e+00
  %48 = fcmp ole double %42, %47
  br i1 %48, label %49, label %69

49:                                               ; preds = %40
  %50 = getelementptr inbounds [100 x double], [100 x double]* %4, i64 0, i64 1
  store double 1.000000e+00, double* %50, align 8
  %51 = getelementptr inbounds [100 x double], [100 x double]* %4, i64 0, i64 2
  store double 2.000000e+00, double* %51, align 16
  %52 = load i32, i32* %8, align 4
  %53 = sub nsw i32 %52, 1
  %54 = sext i32 %53 to i64
  %55 = getelementptr inbounds [100 x double], [100 x double]* %4, i64 0, i64 %54
  %56 = load double, double* %55, align 8
  %57 = load i32, i32* %8, align 4
  %58 = sub nsw i32 %57, 2
  %59 = sext i32 %58 to i64
  %60 = getelementptr inbounds [100 x double], [100 x double]* %4, i64 0, i64 %59
  %61 = load double, double* %60, align 8
  %62 = fadd double %56, %61
  %63 = load i32, i32* %8, align 4
  %64 = sext i32 %63 to i64
  %65 = getelementptr inbounds [100 x double], [100 x double]* %4, i64 0, i64 %64
  store double %62, double* %65, align 8
  br label %66

66:                                               ; preds = %49
  %67 = load i32, i32* %8, align 4
  %68 = add nsw i32 %67, 1
  store i32 %68, i32* %8, align 4
  br label %40

69:                                               ; preds = %40
  store i32 1, i32* %8, align 4
  br label %70

70:                                               ; preds = %92, %69
  %71 = load i32, i32* %8, align 4
  %72 = sitofp i32 %71 to double
  %73 = load i32, i32* %7, align 4
  %74 = sext i32 %73 to i64
  %75 = getelementptr inbounds [100 x double], [100 x double]* %3, i64 0, i64 %74
  %76 = load double, double* %75, align 8
  %77 = fcmp ole double %72, %76
  br i1 %77, label %78, label %95

78:                                               ; preds = %70
  %79 = load i32, i32* %8, align 4
  %80 = add nsw i32 %79, 1
  %81 = sext i32 %80 to i64
  %82 = getelementptr inbounds [100 x double], [100 x double]* %4, i64 0, i64 %81
  %83 = load double, double* %82, align 8
  %84 = load i32, i32* %8, align 4
  %85 = sext i32 %84 to i64
  %86 = getelementptr inbounds [100 x double], [100 x double]* %4, i64 0, i64 %85
  %87 = load double, double* %86, align 8
  %88 = fdiv double %83, %87
  %89 = load i32, i32* %8, align 4
  %90 = sext i32 %89 to i64
  %91 = getelementptr inbounds [100 x double], [100 x double]* %5, i64 0, i64 %90
  store double %88, double* %91, align 8
  br label %92

92:                                               ; preds = %78
  %93 = load i32, i32* %8, align 4
  %94 = add nsw i32 %93, 1
  store i32 %94, i32* %8, align 4
  br label %70

95:                                               ; preds = %70
  %96 = load i32, i32* %7, align 4
  %97 = sext i32 %96 to i64
  %98 = getelementptr inbounds [100 x double], [100 x double]* %6, i64 0, i64 %97
  store double 0.000000e+00, double* %98, align 8
  store i32 1, i32* %8, align 4
  br label %99

99:                                               ; preds = %117, %95
  %100 = load i32, i32* %8, align 4
  %101 = sitofp i32 %100 to double
  %102 = load i32, i32* %7, align 4
  %103 = sext i32 %102 to i64
  %104 = getelementptr inbounds [100 x double], [100 x double]* %3, i64 0, i64 %103
  %105 = load double, double* %104, align 8
  %106 = fcmp ole double %101, %105
  br i1 %106, label %107, label %120

107:                                              ; preds = %99
  %108 = load i32, i32* %8, align 4
  %109 = sext i32 %108 to i64
  %110 = getelementptr inbounds [100 x double], [100 x double]* %5, i64 0, i64 %109
  %111 = load double, double* %110, align 8
  %112 = load i32, i32* %7, align 4
  %113 = sext i32 %112 to i64
  %114 = getelementptr inbounds [100 x double], [100 x double]* %6, i64 0, i64 %113
  %115 = load double, double* %114, align 8
  %116 = fadd double %115, %111
  store double %116, double* %114, align 8
  br label %117

117:                                              ; preds = %107
  %118 = load i32, i32* %8, align 4
  %119 = add nsw i32 %118, 1
  store i32 %119, i32* %8, align 4
  br label %99

120:                                              ; preds = %99
  br label %121

121:                                              ; preds = %120, %35
  br label %122

122:                                              ; preds = %121
  %123 = load i32, i32* %7, align 4
  %124 = add nsw i32 %123, 1
  store i32 %124, i32* %7, align 4
  br label %24

125:                                              ; preds = %24
  store i32 0, i32* %7, align 4
  br label %126

126:                                              ; preds = %137, %125
  %127 = load i32, i32* %7, align 4
  %128 = sitofp i32 %127 to double
  %129 = load double, double* %2, align 8
  %130 = fcmp olt double %128, %129
  br i1 %130, label %131, label %140

131:                                              ; preds = %126
  %132 = load i32, i32* %7, align 4
  %133 = sext i32 %132 to i64
  %134 = getelementptr inbounds [100 x double], [100 x double]* %6, i64 0, i64 %133
  %135 = load double, double* %134, align 8
  %136 = call i32 (i8*, ...) @printf(i8* getelementptr inbounds ([7 x i8], [7 x i8]* @.str.1, i64 0, i64 0), double %135)
  br label %137

137:                                              ; preds = %131
  %138 = load i32, i32* %7, align 4
  %139 = add nsw i32 %138, 1
  store i32 %139, i32* %7, align 4
  br label %126

140:                                              ; preds = %126
  ret i32 0
}

declare dso_local i32 @__isoc99_scanf(i8*, ...) #1

declare dso_local i32 @printf(i8*, ...) #1


!llvm.module.flags = !{!0}
!llvm.ident = !{!1}

!0 = !{i32 1, !"wchar_size", i32 4}
!1 = !{!"clang version 10.0.0-4ubuntu1 "}
